; Function Attrs: mustprogress uwtable
define dso_local void @_ZNK6google8protobuf20ConformanceTestSuite25ConformanceRequestSetting24ConformanceLevelToStringB5cxx11ENS1_16ConformanceLevelE(ptr noalias sret(%"class.std::__cxx11::basic_string") align 8 %agg.result, ptr nocapture nonnull readnone align 8 %this, i32 noundef %level) local_unnamed_addr #3 align 2 personality ptr @__gxx_personality_v0 {
entry:
  %ref.tmp = alloca %"class.std::allocator", align 1
  %ref.tmp3 = alloca %"class.std::allocator", align 1
  %ref.tmp6 = alloca %"class.google::protobuf::internal::LogMessage", align 8
  %ref.tmp11 = alloca %"class.google::protobuf::internal::LogFinisher", align 1
  %ref.tmp13 = alloca %"class.std::allocator", align 1
  switch i32 %level, label %sw.epilog [
    i32 0, label %sw.bb
    i32 1, label %sw.bb2
  ]

sw.bb:                                            ; preds = %entry
  call void @_ZNSaIcEC1Ev(ptr noundef nonnull align 1 dereferenceable(1) %ref.tmp) #18
  invoke void @_ZNSt7__cxx1112basic_stringIcSt11char_traitsIcESaIcEEC2IS3_EEPKcRKS3_(ptr noundef nonnull align 8 dereferenceable(32) %agg.result, ptr noundef nonnull @.str.5, ptr noundef nonnull align 1 dereferenceable(1) %ref.tmp)
          to label %return unwind label %lpad

lpad:                                             ; preds = %sw.bb
  %0 = landingpad { ptr, i32 }
          cleanup
  call void @_ZNSaIcED1Ev(ptr noundef nonnull align 1 dereferenceable(1) %ref.tmp) #18
  br label %eh.resume

sw.bb2:                                           ; preds = %entry
  call void @_ZNSaIcEC1Ev(ptr noundef nonnull align 1 dereferenceable(1) %ref.tmp3) #18
  invoke void @_ZNSt7__cxx1112basic_stringIcSt11char_traitsIcESaIcEEC2IS3_EEPKcRKS3_(ptr noundef nonnull align 8 dereferenceable(32) %agg.result, ptr noundef nonnull @.str.6, ptr noundef nonnull align 1 dereferenceable(1) %ref.tmp3)
          to label %return unwind label %lpad4

lpad4:                                            ; preds = %sw.bb2
  %1 = landingpad { ptr, i32 }
          cleanup
  call void @_ZNSaIcED1Ev(ptr noundef nonnull align 1 dereferenceable(1) %ref.tmp3) #18
  br label %eh.resume

sw.epilog:                                        ; preds = %entry
  call void @_ZN6google8protobuf8internal10LogMessageC1ENS0_8LogLevelEPKci(ptr noundef nonnull align 8 dereferenceable(56) %ref.tmp6, i32 noundef 3, ptr noundef nonnull @.str, i32 noundef 145)
  %call = invoke noundef nonnull align 8 dereferenceable(56) ptr @_ZN6google8protobuf8internal10LogMessagelsEPKc(ptr noundef nonnull align 8 dereferenceable(56) %ref.tmp6, ptr noundef nonnull @.str.7)
          to label %invoke.cont8 unwind label %lpad7

invoke.cont8:                                     ; preds = %sw.epilog
  %call10 = invoke noundef nonnull align 8 dereferenceable(56) ptr @_ZN6google8protobuf8internal10LogMessagelsEi(ptr noundef nonnull align 8 dereferenceable(56) %call, i32 noundef %level)
          to label %invoke.cont9 unwind label %lpad7

invoke.cont9:                                     ; preds = %invoke.cont8
  invoke void @_ZN6google8protobuf8internal11LogFinisheraSERNS1_10LogMessageE(ptr noundef nonnull align 1 dereferenceable(1) %ref.tmp11, ptr noundef nonnull align 8 dereferenceable(56) %call10)
          to label %invoke.cont12 unwind label %lpad7

invoke.cont12:                                    ; preds = %invoke.cont9
  call void @_ZN6google8protobuf8internal10LogMessageD1Ev(ptr noundef nonnull align 8 dereferenceable(56) %ref.tmp6) #18
  call void @_ZNSaIcEC1Ev(ptr noundef nonnull align 1 dereferenceable(1) %ref.tmp13) #18
  invoke void @_ZNSt7__cxx1112basic_stringIcSt11char_traitsIcESaIcEEC2IS3_EEPKcRKS3_(ptr noundef nonnull align 8 dereferenceable(32) %agg.result, ptr noundef nonnull @.str.8, ptr noundef nonnull align 1 dereferenceable(1) %ref.tmp13)
          to label %return unwind label %lpad14

lpad7:                                            ; preds = %invoke.cont9, %invoke.cont8, %sw.epilog
  %2 = landingpad { ptr, i32 }
          cleanup
  call void @_ZN6google8protobuf8internal10LogMessageD1Ev(ptr noundef nonnull align 8 dereferenceable(56) %ref.tmp6) #18
  br label %eh.resume

lpad14:                                           ; preds = %invoke.cont12
  %3 = landingpad { ptr, i32 }
          cleanup
  call void @_ZNSaIcED1Ev(ptr noundef nonnull align 1 dereferenceable(1) %ref.tmp13) #18
  br label %eh.resume

return:                                           ; preds = %invoke.cont12, %sw.bb2, %sw.bb
  %ref.tmp13.sink = phi ptr [ %ref.tmp, %sw.bb ], [ %ref.tmp3, %sw.bb2 ], [ %ref.tmp13, %invoke.cont12 ]
  call void @_ZNSaIcED1Ev(ptr noundef nonnull align 1 dereferenceable(1) %ref.tmp13.sink) #18
  ret void

eh.resume:                                        ; preds = %lpad14, %lpad7, %lpad4, %lpad
  %.pn = phi { ptr, i32 } [ %3, %lpad14 ], [ %2, %lpad7 ], [ %1, %lpad4 ], [ %0, %lpad ]
  resume { ptr, i32 } %.pn
}